target datalayout = "e-m:e-p270:32:32-p271:32:32-p272:64:64-i64:64-i128:128-f80:128-n8:16:32:64-S128"
target triple = "x86_64-pc-linux-gnu"

%struct.opj_codec_private = type { %union.anon, ptr, %struct.opj_event_mgr, i32, ptr, ptr, ptr, ptr }
%union.anon = type { %struct.opj_decompression }
%struct.opj_decompression = type { ptr, ptr, ptr, ptr, ptr, ptr, ptr, ptr, ptr, ptr, ptr, ptr }
%struct.opj_event_mgr = type { ptr, ptr, ptr, ptr, ptr, ptr }
%struct.opj_compression = type { ptr, ptr, ptr, ptr, ptr, ptr, ptr }

; Function Attrs: nounwind uwtable
define hidden i32 @opj_start_compress(ptr noundef %0, ptr noundef %1, ptr noundef %2) #0 {
  %4 = alloca i32, align 4
  %5 = alloca ptr, align 8
  %6 = alloca ptr, align 8
  %7 = alloca ptr, align 8
  %8 = alloca ptr, align 8
  %9 = alloca ptr, align 8
  %10 = alloca i32, align 4
  store ptr %0, ptr %5, align 8, !tbaa !3
  store ptr %1, ptr %6, align 8, !tbaa !42
  store ptr %2, ptr %7, align 8, !tbaa !3
  %11 = load ptr, ptr %5, align 8, !tbaa !3
  %12 = icmp ne ptr %11, null
  br i1 %12, label %13, label %40

13:                                               ; preds = %3
  %14 = load ptr, ptr %7, align 8, !tbaa !3
  %15 = icmp ne ptr %14, null
  br i1 %15, label %16, label %40

16:                                               ; preds = %13
  call void @llvm.lifetime.start.p0(i64 8, ptr %8) #5
  %17 = load ptr, ptr %5, align 8, !tbaa !3
  store ptr %17, ptr %8, align 8, !tbaa !9
  call void @llvm.lifetime.start.p0(i64 8, ptr %9) #5
  %18 = load ptr, ptr %7, align 8, !tbaa !3
  store ptr %18, ptr %9, align 8, !tbaa !38
  %19 = load ptr, ptr %8, align 8, !tbaa !9
  %20 = getelementptr inbounds nuw %struct.opj_codec_private, ptr %19, i32 0, i32 3
  %21 = load i32, ptr %20, align 8, !tbaa !21
  %22 = icmp ne i32 %21, 0
  br i1 %22, label %36, label %23

23:                                               ; preds = %16
  %24 = load ptr, ptr %8, align 8, !tbaa !9
  %25 = getelementptr inbounds nuw %struct.opj_codec_private, ptr %24, i32 0, i32 0
  %26 = getelementptr inbounds nuw %struct.opj_compression, ptr %25, i32 0, i32 0
  %27 = load ptr, ptr %26, align 8, !tbaa !25
  %28 = load ptr, ptr %8, align 8, !tbaa !9
  %29 = getelementptr inbounds nuw %struct.opj_codec_private, ptr %28, i32 0, i32 1
  %30 = load ptr, ptr %29, align 8, !tbaa !27
  %31 = load ptr, ptr %9, align 8, !tbaa !38
  %32 = load ptr, ptr %6, align 8, !tbaa !42
  %33 = load ptr, ptr %8, align 8, !tbaa !9
  %34 = getelementptr inbounds nuw %struct.opj_codec_private, ptr %33, i32 0, i32 2
  %35 = call i32 %27(ptr noundef %30, ptr noundef %31, ptr noundef %32, ptr noundef %34)
  store i32 %35, ptr %4, align 4
  store i32 1, ptr %10, align 4
  br label %37

36:                                               ; preds = %16
  store i32 0, ptr %10, align 4
  br label %37

37:                                               ; preds = %36, %23
  call void @llvm.lifetime.end.p0(i64 8, ptr %9) #5
  call void @llvm.lifetime.end.p0(i64 8, ptr %8) #5
  %38 = load i32, ptr %10, align 4
  switch i32 %38, label %43 [
    i32 0, label %39
    i32 1, label %41
  ]

39:                                               ; preds = %37
  br label %40

40:                                               ; preds = %39, %13, %3
  store i32 0, ptr %4, align 4
  br label %41

41:                                               ; preds = %40, %37
  %42 = load i32, ptr %4, align 4
  ret i32 %42

43:                                               ; preds = %37
  unreachable
}