; Function Attrs: nounwind uwtable
define hidden i32 @opj_start_compress(ptr noundef %0, ptr noundef %1, ptr noundef %2) local_unnamed_addr #2 {
  %4 = icmp ne ptr %0, null
  %5 = icmp ne ptr %2, null
  %or.cond = and i1 %4, %5
  br i1 %or.cond, label %6, label %.thread

6:                                                ; preds = %3
  %7 = getelementptr inbounds nuw i8, ptr %0, i64 152
  %8 = load i32, ptr %7, align 8, !tbaa !15
  %.not = icmp eq i32 %8, 0
  br i1 %.not, label %9, label %.thread

9:                                                ; preds = %6
  %10 = load ptr, ptr %0, align 8, !tbaa !19
  %11 = getelementptr inbounds nuw i8, ptr %0, i64 96
  %12 = load ptr, ptr %11, align 8, !tbaa !21
  %13 = getelementptr inbounds nuw i8, ptr %0, i64 104
  %14 = tail call i32 %10(ptr noundef %12, ptr noundef nonnull %2, ptr noundef %1, ptr noundef nonnull %13) #8
  br label %.thread

.thread:                                          ; preds = %6, %3, %9
  %.1 = phi i32 [ %14, %9 ], [ 0, %3 ], [ 0, %6 ]
  ret i32 %.1
}